; Function Attrs: nounwind uwtable
define dso_local range(i32 0, 3) i32 @update_node_record_acct_gather_data(ptr noundef readonly captures(none) %0) local_unnamed_addr #0 {
  %2 = getelementptr inbounds nuw i8, ptr %0, i64 8
  %3 = load ptr, ptr %2, align 8
  %4 = tail call ptr @find_node_record(ptr noundef %3) #15
  %5 = icmp eq ptr %4, null
  br i1 %5, label %10, label %6

6:                                                ; preds = %1
  %7 = getelementptr inbounds nuw i8, ptr %4, i64 120
  %8 = load ptr, ptr %7, align 8
  %9 = load ptr, ptr %0, align 8
  tail call void @llvm.memcpy.p0.p0.i64(ptr noundef nonnull align 8 dereferenceable(56) %8, ptr noundef nonnull align 8 dereferenceable(56) %9, i64 56, i1 false)
  br label %10

10:                                               ; preds = %1, %6
  %.0 = phi i32 [ 0, %6 ], [ 2, %1 ]
  ret i32 %.0
}